; ModuleID = '38/555.c'
source_filename = "38/555.c"
target datalayout = "e-m:e-p270:32:32-p271:32:32-p272:64:64-i64:64-f80:128-n8:16:32:64-S128"
target triple = "x86_64-pc-linux-gnu"

@.str = private unnamed_addr constant [3 x i8] c"%d\00", align 1
@.str.1 = private unnamed_addr constant [4 x i8] c"%lf\00", align 1
@.str.2 = private unnamed_addr constant [6 x i8] c"%.5f\0A\00", align 1

; Function Attrs: noinline nounwind uwtable
define dso_local i32 @main(i32 %0, i8** %1) #0 {
  %3 = alloca i32, align 4
  %4 = alloca i32, align 4
  %5 = alloca i8**, align 8
  %6 = alloca i32, align 4
  %7 = alloca i32, align 4
  %8 = alloca i32, align 4
  %9 = alloca [100 x [1000 x double]], align 16
  %10 = alloca [100 x double], align 16
  %11 = alloca double, align 8
  %12 = alloca [100 x double], align 16
  %13 = alloca double, align 8
  %14 = alloca double, align 8
  %15 = alloca i32, align 4
  store i32 0, i32* %3, align 4
  store i32 %0, i32* %4, align 4
  store i8** %1, i8*** %5, align 8
  %16 = call i32 (i8*, ...) @__isoc99_scanf(i8* getelementptr inbounds ([3 x i8], [3 x i8]* @.str, i64 0, i64 0), i32* %6)
  store i32 0, i32* %7, align 4
  br label %17

17:                                               ; preds = %88, %2
  %18 = load i32, i32* %7, align 4
  %19 = load i32, i32* %6, align 4
  %20 = icmp slt i32 %18, %19
  br i1 %20, label %21, label %91

21:                                               ; preds = %17
  store double 0.000000e+00, double* %13, align 8
  store double 0.000000e+00, double* %14, align 8
  %22 = call i32 (i8*, ...) @__isoc99_scanf(i8* getelementptr inbounds ([3 x i8], [3 x i8]* @.str, i64 0, i64 0), i32* %15)
  store i32 0, i32* %8, align 4
  br label %23

23:                                               ; preds = %44, %21
  %24 = load i32, i32* %8, align 4
  %25 = load i32, i32* %15, align 4
  %26 = icmp slt i32 %24, %25
  br i1 %26, label %27, label %47

27:                                               ; preds = %23
  %28 = load i32, i32* %7, align 4
  %29 = sext i32 %28 to i64
  %30 = getelementptr inbounds [100 x [1000 x double]], [100 x [1000 x double]]* %9, i64 0, i64 %29
  %31 = load i32, i32* %8, align 4
  %32 = sext i32 %31 to i64
  %33 = getelementptr inbounds [1000 x double], [1000 x double]* %30, i64 0, i64 %32
  %34 = call i32 (i8*, ...) @__isoc99_scanf(i8* getelementptr inbounds ([4 x i8], [4 x i8]* @.str.1, i64 0, i64 0), double* %33)
  %35 = load i32, i32* %7, align 4
  %36 = sext i32 %35 to i64
  %37 = getelementptr inbounds [100 x [1000 x double]], [100 x [1000 x double]]* %9, i64 0, i64 %36
  %38 = load i32, i32* %8, align 4
  %39 = sext i32 %38 to i64
  %40 = getelementptr inbounds [1000 x double], [1000 x double]* %37, i64 0, i64 %39
  %41 = load double, double* %40, align 8
  %42 = load double, double* %13, align 8
  %43 = fadd double %42, %41
  store double %43, double* %13, align 8
  br label %44

44:                                               ; preds = %27
  %45 = load i32, i32* %8, align 4
  %46 = add nsw i32 %45, 1
  store i32 %46, i32* %8, align 4
  br label %23

47:                                               ; preds = %23
  %48 = load double, double* %13, align 8
  %49 = load i32, i32* %15, align 4
  %50 = sitofp i32 %49 to double
  %51 = fdiv double %48, %50
  %52 = load i32, i32* %7, align 4
  %53 = sext i32 %52 to i64
  %54 = getelementptr inbounds [100 x double], [100 x double]* %10, i64 0, i64 %53
  store double %51, double* %54, align 8
  store i32 0, i32* %8, align 4
  br label %55

55:                                               ; preds = %76, %47
  %56 = load i32, i32* %8, align 4
  %57 = load i32, i32* %15, align 4
  %58 = icmp slt i32 %56, %57
  br i1 %58, label %59, label %79

59:                                               ; preds = %55
  %60 = load i32, i32* %7, align 4
  %61 = sext i32 %60 to i64
  %62 = getelementptr inbounds [100 x [1000 x double]], [100 x [1000 x double]]* %9, i64 0, i64 %61
  %63 = load i32, i32* %8, align 4
  %64 = sext i32 %63 to i64
  %65 = getelementptr inbounds [1000 x double], [1000 x double]* %62, i64 0, i64 %64
  %66 = load double, double* %65, align 8
  %67 = load i32, i32* %7, align 4
  %68 = sext i32 %67 to i64
  %69 = getelementptr inbounds [100 x double], [100 x double]* %10, i64 0, i64 %68
  %70 = load double, double* %69, align 8
  %71 = fsub double %66, %70
  %72 = call double @pow(double %71, double 2.000000e+00) #3
  store double %72, double* %11, align 8
  %73 = load double, double* %11, align 8
  %74 = load double, double* %14, align 8
  %75 = fadd double %74, %73
  store double %75, double* %14, align 8
  br label %76

76:                                               ; preds = %59
  %77 = load i32, i32* %8, align 4
  %78 = add nsw i32 %77, 1
  store i32 %78, i32* %8, align 4
  br label %55

79:                                               ; preds = %55
  %80 = load double, double* %14, align 8
  %81 = load i32, i32* %15, align 4
  %82 = sitofp i32 %81 to double
  %83 = fdiv double %80, %82
  %84 = call double @sqrt(double %83) #3
  %85 = load i32, i32* %7, align 4
  %86 = sext i32 %85 to i64
  %87 = getelementptr inbounds [100 x double], [100 x double]* %12, i64 0, i64 %86
  store double %84, double* %87, align 8
  br label %88

88:                                               ; preds = %79
  %89 = load i32, i32* %7, align 4
  %90 = add nsw i32 %89, 1
  store i32 %90, i32* %7, align 4
  br label %17

91:                                               ; preds = %17
  store i32 0, i32* %7, align 4
  br label %92

92:                                               ; preds = %102, %91
  %93 = load i32, i32* %7, align 4
  %94 = load i32, i32* %6, align 4
  %95 = icmp slt i32 %93, %94
  br i1 %95, label %96, label %105

96:                                               ; preds = %92
  %97 = load i32, i32* %7, align 4
  %98 = sext i32 %97 to i64
  %99 = getelementptr inbounds [100 x double], [100 x double]* %12, i64 0, i64 %98
  %100 = load double, double* %99, align 8
  %101 = call i32 (i8*, ...) @printf(i8* getelementptr inbounds ([6 x i8], [6 x i8]* @.str.2, i64 0, i64 0), double %100)
  br label %102

102:                                              ; preds = %96
  %103 = load i32, i32* %7, align 4
  %104 = add nsw i32 %103, 1
  store i32 %104, i32* %7, align 4
  br label %92

105:                                              ; preds = %92
  ret i32 0
}

declare dso_local i32 @__isoc99_scanf(i8*, ...) #1

; Function Attrs: nounwind
declare dso_local double @pow(double, double) #2

; Function Attrs: nounwind
declare dso_local double @sqrt(double) #2

declare dso_local i32 @printf(i8*, ...) #1


!llvm.module.flags = !{!0}
!llvm.ident = !{!1}

!0 = !{i32 1, !"wchar_size", i32 4}
!1 = !{!"clang version 10.0.0-4ubuntu1 "}
